(lp0
ccopy_reg
_reconstructor
p1
(cnn_dynamics_roach.msg._velroach_msg
velroach_msg
p2
c__builtin__
object
p3
Ntp4
Rp5
(lp6
g1
(crospy.rostime
Time
p7
g3
Ntp8
Rp9
(lp10
I1533760659
aI504910945
abaI0
aI0
aI40
aI332
aI-2
aI2
aI0
aI-10
aI-2
aI845
abag1
(g2
g3
Ntp11
Rp12
(lp13
g1
(g7
g3
Ntp14
Rp15
(lp16
I1533760659
aI552299022
abacnumpy.core.multiarray
scalar
p17
(cnumpy
dtype
p18
(S'f8'
p19
I0
I1
tp20
Rp21
(I3
S'<'
p22
NNNI-1
I-1
I0
tp23
bS'\x9e6\xcc\x19\x81\x12\x81@'
p24
tp25
Rp26
ag17
(g21
S'\xd9\x8e\xb7y\xb7\x8ex@'
p27
tp28
Rp29
aI40
aI324
aI-2
aI0
aI-5
aI10
aI-8
aI846
abag1
(g2
g3
Ntp30
Rp31
(lp32
g1
(g7
g3
Ntp33
Rp34
(lp35
I1533760659
aI657164096
abag17
(g21
S'\n/\x05\x1c\xb2W\x82@'
p36
tp37
Rp38
ag17
(g21
S'X\x16G\x11\xf5\x0bu@'
p39
tp40
Rp41
aI53244
aI37040
aI12
aI-42
aI9
aI95
aI-62
aI843
abag1
(g2
g3
Ntp42
Rp43
(lp44
g1
(g7
g3
Ntp45
Rp46
(lp47
I1533760659
aI753396034
abag17
(g21
S'\xd9d,\xf9\x80\xf1x@'
p48
tp49
Rp50
ag17
(g21
S'\xc2\xe6\xaaj\xb3\x97w@'
p51
tp52
Rp53
aI109956
aI69216
aI-28
aI100
aI-76
aI88
aI-61
aI844
abag1
(g2
g3
Ntp54
Rp55
(lp56
g1
(g7
g3
Ntp57
Rp58
(lp59
I1533760659
aI855165004
abag17
(g21
S'\x9dT\x92\x02(\x14{@'
p60
tp61
Rp62
ag17
(g21
S'\xbf\x83~x\xf0@z@'
p63
tp64
Rp65
aI148056
aI104848
aI-66
aI23
aI39
aI56
aI-51
aI843
abag1
(g2
g3
Ntp66
Rp67
(lp68
g1
(g7
g3
Ntp69
Rp70
(lp71
I1533760659
aI952528953
abag17
(g21
S'"\n\xff\xba\x1d\xe7\x80@'
p72
tp73
Rp74
ag17
(g21
S"\x05\x89\xa13'\xc5t@"
p75
tp76
Rp77
aI191056
aI145348
aI-57
aI56
aI73
aI59
aI-50
aI843
abag1
(g2
g3
Ntp78
Rp79
(lp80
g1
(g7
g3
Ntp81
Rp82
(lp83
I1533760660
aI48599004
abag17
(g21
S'%Z\xbf\\\xb0V~@'
p84
tp85
Rp86
ag17
(g21
S'\xc0\xb5\xb2\t\x19\xeet@'
p87
tp88
Rp89
aI243628
aI177328
aI-72
aI-142
aI-66
aI94
aI-48
aI845
abag1
(g2
g3
Ntp90
Rp91
(lp92
g1
(g7
g3
Ntp93
Rp94
(lp95
I1533760660
aI152462005
abag17
(g21
S'\x8a2\xcf\x90\xe8\x10y@'
p96
tp97
Rp98
ag17
(g21
S'6\x90\x8b\xa4X\xadw@'
p99
tp100
Rp101
aI290348
aI209464
aI21
aI-121
aI12
aI79
aI-39
aI843
abag1
(g2
g3
Ntp102
Rp103
(lp104
g1
(g7
g3
Ntp105
Rp106
(lp107
I1533760660
aI255057096
abag17
(g21
S'\x92\x04\x17E\x82H\x81@'
p108
tp109
Rp110
ag17
(g21
S'\xb4\xd1TmN\xfep@'
p111
tp112
Rp113
aI329876
aI246128
aI6
aI63
aI21
aI67
aI-42
aI842
abag1
(g2
g3
Ntp114
Rp115
(lp116
g1
(g7
g3
Ntp117
Rp118
(lp119
I1533760660
aI353102922
abag17
(g21
S'\xcea\x94\x8c\x0e-{@'
p120
tp121
Rp122
ag17
(g21
S'~\xa8\x07h\x17\x13u@'
p123
tp124
Rp125
aI383956
aI272136
aI88
aI0
aI28
aI106
aI-47
aI841
abag1
(g2
g3
Ntp126
Rp127
(lp128
g1
(g7
g3
Ntp129
Rp130
(lp131
I1533760660
aI448879957
abag17
(g21
S'(\xa9\xfe}@7\x81@'
p132
tp133
Rp134
ag17
(g21
S'\xc0?{\xabo-~@'
p135
tp136
Rp137
aI425836
aI304608
aI56
aI43
aI66
aI77
aI-48
aI844
abag1
(g2
g3
Ntp138
Rp139
(lp140
g1
(g7
g3
Ntp141
Rp142
(lp143
I1533760660
aI552438974
abag17
(g21
S']7_\xeaA\xbe\x80@'
p144
tp145
Rp146
ag17
(g21
S'\xd6\xe9\x13\x9a\xfa\xef\x80@'
p147
tp148
Rp149
aI479052
aI350812
aI56
aI-31
aI38
aI81
aI-71
aI840
aba.